TN:coverage
SF:/Volumes/ZX/_s21_/SimpleNavigator/src/model/Graph/inc/GraphExceptions.h
FN:11,12,_ZN3s2114GraphExceptionC2ERKNSt7__cxx1112basic_stringIcSt11char_traitsIcESaIcEEE
FN:17,18,_ZN3s2121CantOpenFileExceptionC1ERKNSt7__cxx1112basic_stringIcSt11char_traitsIcESaIcEEE
FN:23,24,_ZN3s2123CantCreateFileExceptionC1ERKNSt7__cxx1112basic_stringIcSt11char_traitsIcESaIcEEE
FN:29,31,_ZN3s2121ParsingErrorExceptionC1ERKNSt7__cxx1112basic_stringIcSt11char_traitsIcESaIcEEEi
FN:36,37,_ZN3s2127MatrixSizeMismatchExceptionC1ERKNSt7__cxx1112basic_stringIcSt11char_traitsIcESaIcEEE
FN:42,43,_ZN3s2118EmptyFileExceptionC1ERKNSt7__cxx1112basic_stringIcSt11char_traitsIcESaIcEEE
FN:48,48,_ZN3s2119EmptyGraphExceptionC1Ev
FNDA:36,_ZN3s2114GraphExceptionC2ERKNSt7__cxx1112basic_stringIcSt11char_traitsIcESaIcEEE
FNDA:6,_ZN3s2121CantOpenFileExceptionC1ERKNSt7__cxx1112basic_stringIcSt11char_traitsIcESaIcEEE
FNDA:6,_ZN3s2123CantCreateFileExceptionC1ERKNSt7__cxx1112basic_stringIcSt11char_traitsIcESaIcEEE
FNDA:12,_ZN3s2121ParsingErrorExceptionC1ERKNSt7__cxx1112basic_stringIcSt11char_traitsIcESaIcEEEi
FNDA:6,_ZN3s2127MatrixSizeMismatchExceptionC1ERKNSt7__cxx1112basic_stringIcSt11char_traitsIcESaIcEEE
FNDA:6,_ZN3s2118EmptyFileExceptionC1ERKNSt7__cxx1112basic_stringIcSt11char_traitsIcESaIcEEE
FNDA:0,_ZN3s2119EmptyGraphExceptionC1Ev
FNF:7
FNH:6
DA:11,36
DA:12,36
DA:17,6
DA:18,6
DA:23,6
DA:24,6
DA:29,12
DA:30,24
DA:31,36
DA:36,6
DA:37,6
DA:42,6
DA:43,6
DA:48,0
LF:14
LH:13
end_of_record
TN:coverage
SF:/Volumes/ZX/_s21_/SimpleNavigator/src/model/Graph/src/ExportGraphToDot.cc
FN:37,46,_ZN3s215Graph16ExportGraphToDotERKNSt7__cxx1112basic_stringIcSt11char_traitsIcESaIcEEE
FN:5,35,_ZNK3s215Graph8ToStringB5cxx11Ev
FNDA:18,_ZN3s215Graph16ExportGraphToDotERKNSt7__cxx1112basic_stringIcSt11char_traitsIcESaIcEEE
FNDA:12,_ZNK3s215Graph8ToStringB5cxx11Ev
FNF:2
FNH:2
DA:5,12
DA:6,12
DA:8,24
DA:9,24
DA:11,12
DA:13,54
DA:14,42
DA:16,12
DA:17,24
DA:19,54
DA:20,216
DA:21,174
DA:22,72
DA:25,198
DA:26,66
DA:27,66
DA:32,12
DA:34,24
DA:37,18
DA:38,36
DA:40,18
DA:41,6
DA:44,12
DA:45,12
DA:46,12
LF:25
LH:25
end_of_record
TN:coverage
SF:/Volumes/ZX/_s21_/SimpleNavigator/src/model/Graph/src/LoadGraphFromFile.cc
FN:11,18,_ZN3s21L14ReadMatrixSizeERSt14basic_ifstreamIcSt11char_traitsIcEERm
FN:20,55,_ZN3s21L18ReadMatrixElementsERSt14basic_ifstreamIcSt11char_traitsIcEERSt6vectorIS5_ImSaImEESaIS7_EERm
FN:5,9,_ZN3s21L14SkipWhitespaceERSt14basic_ifstreamIcSt11char_traitsIcEE
FN:57,66,_ZN3s21L14findoutDigraphESt6vectorIS0_ImSaImEESaIS2_EEm
FN:68,93,_ZN3s215Graph17LoadGraphFromFileERKNSt7__cxx1112basic_stringIcSt11char_traitsIcESaIcEEE
FNDA:36,_ZN3s21L14ReadMatrixSizeERSt14basic_ifstreamIcSt11char_traitsIcEERm
FNDA:30,_ZN3s21L18ReadMatrixElementsERSt14basic_ifstreamIcSt11char_traitsIcEERSt6vectorIS5_ImSaImEESaIS7_EERm
FNDA:102,_ZN3s21L14SkipWhitespaceERSt14basic_ifstreamIcSt11char_traitsIcEE
FNDA:18,_ZN3s21L14findoutDigraphESt6vectorIS0_ImSaImEESaIS2_EEm
FNDA:48,_ZN3s215Graph17LoadGraphFromFileERKNSt7__cxx1112basic_stringIcSt11char_traitsIcESaIcEEE
FNF:5
FNH:5
DA:5,138
DA:6,138
DA:7,36
DA:9,102
DA:11,36
DA:12,36
DA:14,36
DA:15,6
DA:16,6
DA:18,30
DA:20,30
DA:22,30
DA:24,90
DA:25,144
DA:26,72
DA:28,144
DA:29,144
DA:32,306
DA:33,240
DA:34,6
DA:35,6
DA:37,234
DA:40,66
DA:41,6
DA:42,6
DA:44,12
DA:47,60
DA:50,18
DA:51,0
DA:52,0
DA:53,0
DA:55,18
DA:57,18
DA:58,42
DA:59,84
DA:60,60
DA:61,6
DA:65,12
DA:68,48
DA:69,78
DA:71,48
DA:73,42
DA:75,42
DA:76,6
DA:77,6
DA:80,36
DA:81,36
DA:83,30
DA:84,0
DA:85,0
DA:88,30
DA:89,30
DA:90,30
DA:91,18
DA:92,18
DA:93,18
LF:56
LH:51
end_of_record
TN:coverage
SF:/Volumes/ZX/_s21_/SimpleNavigator/src/model/Graph/src/s21_graph.cc
FNF:0
FNH:0
LF:0
LH:0
end_of_record
TN:coverage
SF:/usr/local/include/c++/10.3.0/bits/alloc_traits.h
FN:459,460,_ZNSt16allocator_traitsISaISt6vectorImSaImEEEE8allocateERS3_m
FN:459,460,_ZNSt16allocator_traitsISaImEE8allocateERS0_m
FN:491,492,_ZNSt16allocator_traitsISaISt6vectorImSaImEEEE10deallocateERS3_PS2_m
FN:491,492,_ZNSt16allocator_traitsISaImEE10deallocateERS0_Pmm
FN:507,516,_ZNSt16allocator_traitsISaISt6vectorImSaImEEEE9constructIS2_JRKS2_EEEvRS3_PT_DpOT0_
FN:507,516,_ZNSt16allocator_traitsISaImEE9constructImJRKmEEEvRS0_PT_DpOT0_
FN:527,535,_ZNSt16allocator_traitsISaISt6vectorImSaImEEEE7destroyIS2_EEvRS3_PT_
FN:527,535,_ZNSt16allocator_traitsISaImEE7destroyImEEvRS0_PT_
FN:543,550,_ZNSt16allocator_traitsISaISt6vectorImSaImEEEE8max_sizeERKS3_
FN:543,550,_ZNSt16allocator_traitsISaImEE8max_sizeERKS0_
FN:558,559,_ZNSt16allocator_traitsISaISt6vectorImSaImEEEE37select_on_container_copy_constructionERKS3_
FN:558,559,_ZNSt16allocator_traitsISaIcEE37select_on_container_copy_constructionERKS0_
FN:558,559,_ZNSt16allocator_traitsISaImEE37select_on_container_copy_constructionERKS0_
FN:570,571,_ZSt18__do_alloc_on_copyISaImEEvRT_RKS1_St17integral_constantIbLb0EE
FN:576,586,_ZSt15__alloc_on_copyISaImEEvRT_RKS1_
FN:598,599,_ZSt18__do_alloc_on_moveISaImEEvRT_S2_St17integral_constantIbLb1EE
FN:608,618,_ZSt15__alloc_on_moveISaImEEvRT_S2_
FN:735,739,_ZSt8_DestroyIN9__gnu_cxx17__normal_iteratorIPmSt6vectorImSaImEEEEmEvT_S7_RSaIT0_E
FN:735,739,_ZSt8_DestroyIPSt6vectorImSaImEES2_EvT_S4_RSaIT0_E
FN:735,739,_ZSt8_DestroyIPmmEvT_S1_RSaIT0_E
FNDA:48,_ZNSt16allocator_traitsISaISt6vectorImSaImEEEE8allocateERS3_m
FNDA:372,_ZNSt16allocator_traitsISaImEE8allocateERS0_m
FNDA:48,_ZNSt16allocator_traitsISaISt6vectorImSaImEEEE10deallocateERS3_PS2_m
FNDA:372,_ZNSt16allocator_traitsISaImEE10deallocateERS0_Pmm
FNDA:0,_ZNSt16allocator_traitsISaISt6vectorImSaImEEEE9constructIS2_JRKS2_EEEvRS3_PT_DpOT0_
FNDA:234,_ZNSt16allocator_traitsISaImEE9constructImJRKmEEEvRS0_PT_DpOT0_
FNDA:0,_ZNSt16allocator_traitsISaISt6vectorImSaImEEEE7destroyIS2_EEvRS3_PT_
FNDA:0,_ZNSt16allocator_traitsISaImEE7destroyImEEvRS0_PT_
FNDA:60,_ZNSt16allocator_traitsISaISt6vectorImSaImEEEE8max_sizeERKS3_
FNDA:0,_ZNSt16allocator_traitsISaImEE8max_sizeERKS0_
FNDA:18,_ZNSt16allocator_traitsISaISt6vectorImSaImEEEE37select_on_container_copy_constructionERKS3_
FNDA:0,_ZNSt16allocator_traitsISaIcEE37select_on_container_copy_constructionERKS0_
FNDA:138,_ZNSt16allocator_traitsISaImEE37select_on_container_copy_constructionERKS0_
FNDA:0,_ZSt18__do_alloc_on_copyISaImEEvRT_RKS1_St17integral_constantIbLb0EE
FNDA:0,_ZSt15__alloc_on_copyISaImEEvRT_RKS1_
FNDA:0,_ZSt18__do_alloc_on_moveISaImEEvRT_S2_St17integral_constantIbLb1EE
FNDA:0,_ZSt15__alloc_on_moveISaImEEvRT_S2_
FNDA:60,_ZSt8_DestroyIN9__gnu_cxx17__normal_iteratorIPmSt6vectorImSaImEEEEmEvT_S7_RSaIT0_E
FNDA:0,_ZSt8_DestroyIPSt6vectorImSaImEES2_EvT_S4_RSaIT0_E
FNDA:0,_ZSt8_DestroyIPmmEvT_S1_RSaIT0_E
FNF:20
FNH:9
DA:459,420
DA:460,420
DA:491,420
DA:492,420
DA:507,234
DA:512,234
DA:516,234
DA:527,0
DA:531,0
DA:535,0
DA:543,60
DA:546,60
DA:558,156
DA:559,156
DA:570,0
DA:571,0
DA:576,0
DA:584,0
DA:586,0
DA:598,0
DA:599,0
DA:608,0
DA:616,0
DA:618,0
DA:735,60
DA:738,60
DA:739,60
LF:27
LH:14
end_of_record
TN:coverage
SF:/usr/local/include/c++/10.3.0/bits/allocator.h
FN:144,144,_ZNSaImEC1Ev
FN:144,144,_ZNSaImEC2Ev
FN:147,148,_ZNSaISt6vectorImSaImEEEC1ERKS2_
FN:147,148,_ZNSaISt6vectorImSaImEEEC2ERKS2_
FN:147,148,_ZNSaImEC1ERKS_
FN:147,148,_ZNSaImEC2ERKS_
FN:162,162,_ZNSaISt6vectorImSaImEEED1Ev
FN:162,162,_ZNSaISt6vectorImSaImEEED2Ev
FN:162,162,_ZNSaImED1Ev
FN:162,162,_ZNSaImED2Ev
FN:197,198,_ZStneRKSaImES1_
FNDA:30,_ZNSaImEC1Ev
FNDA:72,_ZNSaImEC2Ev
FNDA:18,_ZNSaISt6vectorImSaImEEEC1ERKS2_
FNDA:18,_ZNSaISt6vectorImSaImEEEC2ERKS2_
FNDA:168,_ZNSaImEC1ERKS_
FNDA:168,_ZNSaImEC2ERKS_
FNDA:18,_ZNSaISt6vectorImSaImEEED1Ev
FNDA:0,_ZNSaISt6vectorImSaImEEED2Ev
FNDA:198,_ZNSaImED1Ev
FNDA:0,_ZNSaImED2Ev
FNDA:0,_ZStneRKSaImES1_
FNF:11
FNH:8
DA:144,102
DA:147,372
DA:148,372
DA:162,216
DA:197,0
DA:198,0
LF:6
LH:4
end_of_record
TN:coverage
SF:/usr/local/include/c++/10.3.0/bits/basic_string.h
FN:6069,6075,_ZStplIcSt11char_traitsIcESaIcEENSt7__cxx1112basic_stringIT_T0_T1_EERKS8_PKS5_
FN:6097,6099,_ZStplIcSt11char_traitsIcESaIcEENSt7__cxx1112basic_stringIT_T0_T1_EEOS8_RKS8_
FN:6131,6133,_ZStplIcSt11char_traitsIcESaIcEENSt7__cxx1112basic_stringIT_T0_T1_EEPKS5_OS8_
FN:6143,6145,_ZStplIcSt11char_traitsIcESaIcEENSt7__cxx1112basic_stringIT_T0_T1_EEOS8_PKS5_
FN:6597,6605,_ZNSt7__cxx119to_stringEi
FN:6627,6632,_ZNSt7__cxx119to_stringEm
FNDA:0,_ZStplIcSt11char_traitsIcESaIcEENSt7__cxx1112basic_stringIT_T0_T1_EERKS8_PKS5_
FNDA:60,_ZStplIcSt11char_traitsIcESaIcEENSt7__cxx1112basic_stringIT_T0_T1_EEOS8_RKS8_
FNDA:78,_ZStplIcSt11char_traitsIcESaIcEENSt7__cxx1112basic_stringIT_T0_T1_EEPKS5_OS8_
FNDA:0,_ZStplIcSt11char_traitsIcESaIcEENSt7__cxx1112basic_stringIT_T0_T1_EEOS8_PKS5_
FNDA:12,_ZNSt7__cxx119to_stringEi
FNDA:66,_ZNSt7__cxx119to_stringEm
FNF:6
FNH:4
DA:6069,0
DA:6072,0
DA:6073,0
DA:6074,0
DA:6097,60
DA:6099,60
DA:6131,78
DA:6133,78
DA:6143,0
DA:6145,0
DA:6597,12
DA:6599,12
DA:6600,12
DA:6601,12
DA:6602,12
DA:6603,12
DA:6604,12
DA:6627,66
DA:6629,66
DA:6630,66
DA:6631,66
LF:21
LH:15
end_of_record
TN:coverage
SF:/usr/local/include/c++/10.3.0/bits/basic_string.tcc
FN:1152,1168,_ZStplIcSt11char_traitsIcESaIcEENSt7__cxx1112basic_stringIT_T0_T1_EEPKS5_RKS8_
FNDA:0,_ZStplIcSt11char_traitsIcESaIcEENSt7__cxx1112basic_stringIT_T0_T1_EEPKS5_RKS8_
FNF:1
FNH:0
DA:1152,0
DA:1161,0
DA:1162,0
DA:1164,0
DA:1165,0
DA:1166,0
DA:1167,0
LF:7
LH:0
end_of_record
TN:coverage
SF:/usr/local/include/c++/10.3.0/bits/char_traits.h
FN:365,372,_ZNSt11char_traitsIcE6lengthEPKc
FNDA:0,_ZNSt11char_traitsIcE6lengthEPKc
FNF:1
FNH:0
DA:365,0
DA:371,0
LF:2
LH:0
end_of_record
TN:coverage
SF:/usr/local/include/c++/10.3.0/bits/charconv.h
FN:47,65,_ZNSt8__detail14__to_chars_lenIjEEjT_i
FN:47,65,_ZNSt8__detail14__to_chars_lenImEEjT_i
FN:72,100,_ZNSt8__detail18__to_chars_10_implIjEEvPcjT_
FN:72,100,_ZNSt8__detail18__to_chars_10_implImEEvPcjT_
FNDA:12,_ZNSt8__detail14__to_chars_lenIjEEjT_i
FNDA:66,_ZNSt8__detail14__to_chars_lenImEEjT_i
FNDA:12,_ZNSt8__detail18__to_chars_10_implIjEEvPcjT_
FNDA:66,_ZNSt8__detail18__to_chars_10_implImEEvPcjT_
FNF:4
FNH:4
DA:47,78
DA:52,78
DA:53,78
DA:54,78
DA:55,78
DA:58,78
DA:59,6
DA:60,0
DA:61,0
DA:62,0
DA:63,0
DA:72,78
DA:83,78
DA:84,78
DA:86,0
DA:87,0
DA:88,0
DA:89,0
DA:90,0
DA:92,78
DA:94,6
DA:95,6
DA:96,6
DA:99,72
DA:100,78
LF:25
LH:16
end_of_record
TN:coverage
SF:/usr/local/include/c++/10.3.0/bits/cpp_type_traits.h
FN:544,545,_ZSt12__miter_baseIN9__gnu_cxx17__normal_iteratorIPKmSt6vectorImSaImEEEEET_S8_
FN:544,545,_ZSt12__miter_baseIPSt6vectorImSaImEEET_S4_
FN:544,545,_ZSt12__miter_baseIPmET_S1_
FNDA:396,_ZSt12__miter_baseIN9__gnu_cxx17__normal_iteratorIPKmSt6vectorImSaImEEEEET_S8_
FNDA:0,_ZSt12__miter_baseIPSt6vectorImSaImEEET_S4_
FNDA:0,_ZSt12__miter_baseIPmET_S1_
FNF:3
FNH:1
DA:544,396
DA:545,396
LF:2
LH:2
end_of_record
TN:coverage
SF:/usr/local/include/c++/10.3.0/bits/move.h
FN:101,102,_ZSt4moveIRNSt12_Vector_baseImSaImEE12_Vector_implEEONSt16remove_referenceIT_E4typeEOS6_
FN:101,102,_ZSt4moveIRNSt7__cxx1112basic_stringIcSt11char_traitsIcESaIcEEEEONSt16remove_referenceIT_E4typeEOS8_
FN:101,102,_ZSt4moveIRPSt6vectorImSaImEEEONSt16remove_referenceIT_E4typeEOS6_
FN:101,102,_ZSt4moveIRPmEONSt16remove_referenceIT_E4typeEOS3_
FN:101,102,_ZSt4moveIRSaImEEONSt16remove_referenceIT_E4typeEOS3_
FN:101,102,_ZSt4moveIRSt6vectorImSaImEEEONSt16remove_referenceIT_E4typeEOS5_
FN:49,50,_ZSt11__addressofISt6vectorImSaImEEEPT_RS3_
FN:76,77,_ZSt7forwardIRKSt6vectorImSaImEEEOT_RNSt16remove_referenceIS5_E4typeE
FN:76,77,_ZSt7forwardIRKmEOT_RNSt16remove_referenceIS2_E4typeE
FN:76,77,_ZSt7forwardISt6vectorImSaImEEEOT_RNSt16remove_referenceIS3_E4typeE
FNDA:0,_ZSt4moveIRNSt12_Vector_baseImSaImEE12_Vector_implEEONSt16remove_referenceIT_E4typeEOS6_
FNDA:396,_ZSt4moveIRNSt7__cxx1112basic_stringIcSt11char_traitsIcESaIcEEEEONSt16remove_referenceIT_E4typeEOS8_
FNDA:120,_ZSt4moveIRPSt6vectorImSaImEEEONSt16remove_referenceIT_E4typeEOS6_
FNDA:0,_ZSt4moveIRPmEONSt16remove_referenceIT_E4typeEOS3_
FNDA:0,_ZSt4moveIRSaImEEONSt16remove_referenceIT_E4typeEOS3_
FNDA:0,_ZSt4moveIRSt6vectorImSaImEEEONSt16remove_referenceIT_E4typeEOS5_
FNDA:276,_ZSt11__addressofISt6vectorImSaImEEEPT_RS3_
FNDA:138,_ZSt7forwardIRKSt6vectorImSaImEEEOT_RNSt16remove_referenceIS5_E4typeE
FNDA:672,_ZSt7forwardIRKmEOT_RNSt16remove_referenceIS2_E4typeE
FNDA:0,_ZSt7forwardISt6vectorImSaImEEEOT_RNSt16remove_referenceIS3_E4typeE
FNF:10
FNH:5
DA:49,276
DA:50,276
DA:76,810
DA:77,810
DA:101,516
DA:102,516
LF:6
LH:6
end_of_record
TN:coverage
SF:/usr/local/include/c++/10.3.0/bits/stl_algobase.h
FN:1054,1067,_ZSt10__fill_n_aIPmmmET_S1_T0_RKT1_St26random_access_iterator_tag
FN:1089,1096,_ZSt6fill_nIPmmmET_S1_T0_RKT1_
FN:230,238,_ZSt3minImERKT_S2_S2_
FN:254,262,_ZSt3maxImERKT_S2_S2_
FN:313,315,_ZSt12__niter_baseIPSt6vectorImSaImEEET_S4_
FN:313,315,_ZSt12__niter_baseIPmET_S1_
FN:323,324,_ZSt12__niter_wrapIN9__gnu_cxx17__normal_iteratorIPmSt6vectorImSaImEEEES2_ET_S7_T0_
FN:330,331,_ZSt12__niter_wrapIPSt6vectorImSaImEEET_RKS4_S4_
FN:330,331,_ZSt12__niter_wrapIPmET_RKS1_S1_
FN:415,428,_ZNSt11__copy_moveILb0ELb1ESt26random_access_iterator_tagE8__copy_mImEEPT_PKS3_S6_S4_
FN:415,428,_ZNSt11__copy_moveILb1ELb1ESt26random_access_iterator_tagE8__copy_mImEEPT_PKS3_S6_S4_
FN:463,473,_ZSt14__copy_move_a2ILb0EPKmPmET1_T0_S4_S3_
FN:463,473,_ZSt14__copy_move_a2ILb0EPmS0_ET1_T0_S2_S1_
FN:463,473,_ZSt14__copy_move_a2ILb1EPmS0_ET1_T0_S2_S1_
FN:505,506,_ZSt14__copy_move_a1ILb0EPKmPmET1_T0_S4_S3_
FN:505,506,_ZSt14__copy_move_a1ILb0EPmS0_ET1_T0_S2_S1_
FN:505,506,_ZSt14__copy_move_a1ILb1EPmS0_ET1_T0_S2_S1_
FN:511,517,_ZSt13__copy_move_aILb0EN9__gnu_cxx17__normal_iteratorIPKmSt6vectorImSaImEEEENS1_IPmS6_EEET1_T0_SB_SA_
FN:511,517,_ZSt13__copy_move_aILb0EN9__gnu_cxx17__normal_iteratorIPKmSt6vectorImSaImEEEEPmET1_T0_SA_S9_
FN:511,517,_ZSt13__copy_move_aILb0EPmS0_ET1_T0_S2_S1_
FN:511,517,_ZSt13__copy_move_aILb1EPmS0_ET1_T0_S2_S1_
FN:560,570,_ZSt4copyIN9__gnu_cxx17__normal_iteratorIPKmSt6vectorImSaImEEEENS1_IPmS6_EEET0_T_SB_SA_
FN:560,570,_ZSt4copyIN9__gnu_cxx17__normal_iteratorIPKmSt6vectorImSaImEEEEPmET0_T_SA_S9_
FN:560,570,_ZSt4copyIPmS0_ET0_T_S2_S1_
FN:560,570,_ZSt4copyISt13move_iteratorIPmES1_ET0_T_S4_S3_
FN:663,670,_ZNSt20__copy_move_backwardILb1ELb0ESt26random_access_iterator_tagE13__copy_move_bIPSt6vectorImSaImEES6_EET0_T_S8_S7_
FN:699,712,_ZSt23__copy_move_backward_a2ILb1EPSt6vectorImSaImEES3_ET1_T0_S5_S4_
FN:717,718,_ZSt23__copy_move_backward_a1ILb1EPSt6vectorImSaImEES3_ET1_T0_S5_S4_
FN:745,751,_ZSt22__copy_move_backward_aILb1EPSt6vectorImSaImEES3_ET1_T0_S5_S4_
FN:833,846,_ZSt13move_backwardIPSt6vectorImSaImEES3_ET0_T_S5_S4_
FN:857,862,_ZSt9__fill_a1IPSt6vectorImSaImEES2_EN9__gnu_cxx11__enable_ifIXntsrSt11__is_scalarIT0_E7__valueEvE6__typeET_SB_RKS7_
FN:868,874,_ZSt9__fill_a1IPmmEN9__gnu_cxx11__enable_ifIXsrSt11__is_scalarIT0_E7__valueEvE6__typeET_S8_RKS4_
FN:913,914,_ZSt8__fill_aIPSt6vectorImSaImEES2_EvT_S4_RKT0_
FN:913,914,_ZSt8__fill_aIPmmEvT_S1_RKT0_
FN:937,945,_ZSt4fillIPSt6vectorImSaImEES2_EvT_S4_RKT0_
FN:955,955,_ZSt17__size_to_integerm
FNDA:30,_ZSt10__fill_n_aIPmmmET_S1_T0_RKT1_St26random_access_iterator_tag
FNDA:30,_ZSt6fill_nIPmmmET_S1_T0_RKT1_
FNDA:834,_ZSt3minImERKT_S2_S2_
FNDA:0,_ZSt3maxImERKT_S2_S2_
FNDA:0,_ZSt12__niter_baseIPSt6vectorImSaImEEET_S4_
FNDA:0,_ZSt12__niter_baseIPmET_S1_
FNDA:60,_ZSt12__niter_wrapIN9__gnu_cxx17__normal_iteratorIPmSt6vectorImSaImEEEES2_ET_S7_T0_
FNDA:0,_ZSt12__niter_wrapIPSt6vectorImSaImEEET_RKS4_S4_
FNDA:0,_ZSt12__niter_wrapIPmET_RKS1_S1_
FNDA:198,_ZNSt11__copy_moveILb0ELb1ESt26random_access_iterator_tagE8__copy_mImEEPT_PKS3_S6_S4_
FNDA:0,_ZNSt11__copy_moveILb1ELb1ESt26random_access_iterator_tagE8__copy_mImEEPT_PKS3_S6_S4_
FNDA:198,_ZSt14__copy_move_a2ILb0EPKmPmET1_T0_S4_S3_
FNDA:0,_ZSt14__copy_move_a2ILb0EPmS0_ET1_T0_S2_S1_
FNDA:0,_ZSt14__copy_move_a2ILb1EPmS0_ET1_T0_S2_S1_
FNDA:198,_ZSt14__copy_move_a1ILb0EPKmPmET1_T0_S4_S3_
FNDA:0,_ZSt14__copy_move_a1ILb0EPmS0_ET1_T0_S2_S1_
FNDA:0,_ZSt14__copy_move_a1ILb1EPmS0_ET1_T0_S2_S1_
FNDA:60,_ZSt13__copy_move_aILb0EN9__gnu_cxx17__normal_iteratorIPKmSt6vectorImSaImEEEENS1_IPmS6_EEET1_T0_SB_SA_
FNDA:138,_ZSt13__copy_move_aILb0EN9__gnu_cxx17__normal_iteratorIPKmSt6vectorImSaImEEEEPmET1_T0_SA_S9_
FNDA:0,_ZSt13__copy_move_aILb0EPmS0_ET1_T0_S2_S1_
FNDA:0,_ZSt13__copy_move_aILb1EPmS0_ET1_T0_S2_S1_
FNDA:60,_ZSt4copyIN9__gnu_cxx17__normal_iteratorIPKmSt6vectorImSaImEEEENS1_IPmS6_EEET0_T_SB_SA_
FNDA:138,_ZSt4copyIN9__gnu_cxx17__normal_iteratorIPKmSt6vectorImSaImEEEEPmET0_T_SA_S9_
FNDA:0,_ZSt4copyIPmS0_ET0_T_S2_S1_
FNDA:0,_ZSt4copyISt13move_iteratorIPmES1_ET0_T_S4_S3_
FNDA:0,_ZNSt20__copy_move_backwardILb1ELb0ESt26random_access_iterator_tagE13__copy_move_bIPSt6vectorImSaImEES6_EET0_T_S8_S7_
FNDA:0,_ZSt23__copy_move_backward_a2ILb1EPSt6vectorImSaImEES3_ET1_T0_S5_S4_
FNDA:0,_ZSt23__copy_move_backward_a1ILb1EPSt6vectorImSaImEES3_ET1_T0_S5_S4_
FNDA:0,_ZSt22__copy_move_backward_aILb1EPSt6vectorImSaImEES3_ET1_T0_S5_S4_
FNDA:0,_ZSt13move_backwardIPSt6vectorImSaImEES3_ET0_T_S5_S4_
FNDA:0,_ZSt9__fill_a1IPSt6vectorImSaImEES2_EN9__gnu_cxx11__enable_ifIXntsrSt11__is_scalarIT0_E7__valueEvE6__typeET_SB_RKS7_
FNDA:30,_ZSt9__fill_a1IPmmEN9__gnu_cxx11__enable_ifIXsrSt11__is_scalarIT0_E7__valueEvE6__typeET_S8_RKS4_
FNDA:0,_ZSt8__fill_aIPSt6vectorImSaImEES2_EvT_S4_RKT0_
FNDA:30,_ZSt8__fill_aIPmmEvT_S1_RKT0_
FNDA:0,_ZSt4fillIPSt6vectorImSaImEES2_EvT_S4_RKT0_
FNDA:0,_ZSt17__size_to_integerm
FNF:36
FNH:13
DA:230,834
DA:235,834
DA:236,0
DA:237,834
DA:254,0
DA:259,0
DA:260,0
DA:261,0
DA:313,0
DA:315,0
DA:323,60
DA:324,60
DA:330,0
DA:331,0
DA:415,198
DA:424,198
DA:425,198
DA:426,198
DA:427,198
DA:463,198
DA:472,198
DA:505,198
DA:506,198
DA:511,198
DA:513,198
DA:516,198
DA:560,198
DA:569,198
DA:663,0
DA:666,0
DA:667,0
DA:668,0
DA:669,0
DA:699,0
DA:709,0
DA:711,0
DA:717,0
DA:718,0
DA:745,0
DA:747,0
DA:750,0
DA:833,0
DA:843,0
DA:845,0
DA:857,0
DA:860,0
DA:861,0
DA:862,0
DA:868,30
DA:871,30
DA:872,114
DA:873,84
DA:874,30
DA:913,30
DA:914,30
DA:937,0
DA:944,0
DA:945,0
DA:955,0
DA:1054,30
DA:1060,30
DA:1061,0
DA:1065,30
DA:1066,30
DA:1089,30
DA:1094,30
DA:1095,60
LF:67
LH:33
end_of_record
TN:coverage
SF:/usr/local/include/c++/10.3.0/bits/stl_construct.h
FN:108,109,_ZSt10_ConstructISt6vectorImSaImEEJRKS2_EEvPT_DpOT0_
FN:108,109,_ZSt10_ConstructISt6vectorImSaImEEJS2_EEvPT_DpOT0_
FN:135,142,_ZSt8_DestroyISt6vectorImSaImEEEvPT_
FN:149,153,_ZNSt12_Destroy_auxILb0EE9__destroyIPSt6vectorImSaImEEEEvT_S6_
FN:161,161,_ZNSt12_Destroy_auxILb1EE9__destroyIN9__gnu_cxx17__normal_iteratorIPmSt6vectorImSaImEEEEEEvT_S9_
FN:161,161,_ZNSt12_Destroy_auxILb1EE9__destroyIPmEEvT_S3_
FN:171,186,_ZSt8_DestroyIN9__gnu_cxx17__normal_iteratorIPmSt6vectorImSaImEEEEEvT_S7_
FN:171,186,_ZSt8_DestroyIPSt6vectorImSaImEEEvT_S4_
FN:171,186,_ZSt8_DestroyIPmEvT_S1_
FNDA:138,_ZSt10_ConstructISt6vectorImSaImEEJRKS2_EEvPT_DpOT0_
FNDA:0,_ZSt10_ConstructISt6vectorImSaImEEJS2_EEvPT_DpOT0_
FNDA:138,_ZSt8_DestroyISt6vectorImSaImEEEvPT_
FNDA:96,_ZNSt12_Destroy_auxILb0EE9__destroyIPSt6vectorImSaImEEEEvT_S6_
FNDA:60,_ZNSt12_Destroy_auxILb1EE9__destroyIN9__gnu_cxx17__normal_iteratorIPmSt6vectorImSaImEEEEEEvT_S9_
FNDA:240,_ZNSt12_Destroy_auxILb1EE9__destroyIPmEEvT_S3_
FNDA:60,_ZSt8_DestroyIN9__gnu_cxx17__normal_iteratorIPmSt6vectorImSaImEEEEEvT_S7_
FNDA:96,_ZSt8_DestroyIPSt6vectorImSaImEEEvT_S4_
FNDA:240,_ZSt8_DestroyIPmEvT_S1_
FNF:9
FNH:8
DA:108,138
DA:109,138
DA:135,138
DA:140,138
DA:142,138
DA:149,234
DA:151,234
DA:152,138
DA:153,96
DA:161,300
DA:171,396
DA:185,396
DA:186,396
LF:13
LH:13
end_of_record
TN:coverage
SF:/usr/local/include/c++/10.3.0/bits/stl_iterator.h
FN:1000,1004,_ZN9__gnu_cxx17__normal_iteratorIPKSt6vectorImSaImEES1_IS3_SaIS3_EEEppEv
FN:1038,1039,_ZNK9__gnu_cxx17__normal_iteratorIPmSt6vectorImSaImEEEplEl
FN:1053,1054,_ZNK9__gnu_cxx17__normal_iteratorIPKSt6vectorImSaImEES1_IS3_SaIS3_EEE4baseEv
FN:1053,1054,_ZNK9__gnu_cxx17__normal_iteratorIPKmSt6vectorImSaImEEE4baseEv
FN:1053,1054,_ZNK9__gnu_cxx17__normal_iteratorIPSt6vectorImSaImEES1_IS3_SaIS3_EEE4baseEv
FN:1053,1054,_ZNK9__gnu_cxx17__normal_iteratorIPmSt6vectorImSaImEEE4baseEv
FN:1110,1113,_ZN9__gnu_cxxneIPKSt6vectorImSaImEES1_IS3_SaIS3_EEEEbRKNS_17__normal_iteratorIT_T0_EESD_
FN:1199,1202,_ZN9__gnu_cxxmiIPSt6vectorImSaImEES1_IS3_SaIS3_EEEENS_17__normal_iteratorIT_T0_E15difference_typeERKSA_SD_
FN:1199,1202,_ZN9__gnu_cxxmiIPmSt6vectorImSaImEEEENS_17__normal_iteratorIT_T0_E15difference_typeERKS8_SB_
FN:1222,1224,_ZSt12__niter_baseIPKmSt6vectorImSaImEEET_N9__gnu_cxx17__normal_iteratorIS5_T0_EE
FN:1222,1224,_ZSt12__niter_baseIPmSt6vectorImSaImEEET_N9__gnu_cxx17__normal_iteratorIS4_T0_EE
FN:1323,1324,_ZNSt13move_iteratorIPSt6vectorImSaImEEEC1ES3_
FN:1323,1324,_ZNSt13move_iteratorIPmEC1ES0_
FN:1341,1342,_ZNKSt13move_iteratorIPSt6vectorImSaImEEE4baseEv
FN:1341,1342,_ZNKSt13move_iteratorIPmE4baseEv
FN:1357,1361,_ZNKSt13move_iteratorIPSt6vectorImSaImEEEdeEv
FN:1369,1373,_ZNSt13move_iteratorIPSt6vectorImSaImEEEppEv
FN:1533,1535,_ZSteqIPSt6vectorImSaImEEEbRKSt13move_iteratorIT_ES8_
FN:1539,1541,_ZStneIPSt6vectorImSaImEEEbRKSt13move_iteratorIT_ES8_
FN:1584,1585,_ZSt18make_move_iteratorIPSt6vectorImSaImEEESt13move_iteratorIT_ES5_
FN:1601,1602,_ZSt32__make_move_if_noexcept_iteratorISt6vectorImSaImEESt13move_iteratorIPS2_EET0_PT_
FN:1601,1602,_ZSt32__make_move_if_noexcept_iteratorImSt13move_iteratorIPmEET0_PT_
FN:2203,2205,_ZSt12__miter_baseIPmEDTcl12__miter_basecldtfp_4baseEEESt13move_iteratorIT_E
FN:975,976,_ZN9__gnu_cxx17__normal_iteratorIPKSt6vectorImSaImEES1_IS3_SaIS3_EEEC1ERKS5_
FN:975,976,_ZN9__gnu_cxx17__normal_iteratorIPKmSt6vectorImSaImEEEC1ERKS2_
FN:975,976,_ZN9__gnu_cxx17__normal_iteratorIPSt6vectorImSaImEES1_IS3_SaIS3_EEEC1ERKS4_
FN:975,976,_ZN9__gnu_cxx17__normal_iteratorIPmSt6vectorImSaImEEEC1ERKS1_
FN:990,991,_ZNK9__gnu_cxx17__normal_iteratorIPKSt6vectorImSaImEES1_IS3_SaIS3_EEEdeEv
FNDA:54,_ZN9__gnu_cxx17__normal_iteratorIPKSt6vectorImSaImEES1_IS3_SaIS3_EEEppEv
FNDA:60,_ZNK9__gnu_cxx17__normal_iteratorIPmSt6vectorImSaImEEEplEl
FNDA:144,_ZNK9__gnu_cxx17__normal_iteratorIPKSt6vectorImSaImEES1_IS3_SaIS3_EEE4baseEv
FNDA:396,_ZNK9__gnu_cxx17__normal_iteratorIPKmSt6vectorImSaImEEE4baseEv
FNDA:120,_ZNK9__gnu_cxx17__normal_iteratorIPSt6vectorImSaImEES1_IS3_SaIS3_EEE4baseEv
FNDA:936,_ZNK9__gnu_cxx17__normal_iteratorIPmSt6vectorImSaImEEE4baseEv
FNDA:72,_ZN9__gnu_cxxneIPKSt6vectorImSaImEES1_IS3_SaIS3_EEEEbRKNS_17__normal_iteratorIT_T0_EESD_
FNDA:30,_ZN9__gnu_cxxmiIPSt6vectorImSaImEES1_IS3_SaIS3_EEEENS_17__normal_iteratorIT_T0_E15difference_typeERKSA_SD_
FNDA:204,_ZN9__gnu_cxxmiIPmSt6vectorImSaImEEEENS_17__normal_iteratorIT_T0_E15difference_typeERKS8_SB_
FNDA:396,_ZSt12__niter_baseIPKmSt6vectorImSaImEEET_N9__gnu_cxx17__normal_iteratorIS5_T0_EE
FNDA:120,_ZSt12__niter_baseIPmSt6vectorImSaImEEET_N9__gnu_cxx17__normal_iteratorIS4_T0_EE
FNDA:120,_ZNSt13move_iteratorIPSt6vectorImSaImEEEC1ES3_
FNDA:0,_ZNSt13move_iteratorIPmEC1ES0_
FNDA:120,_ZNKSt13move_iteratorIPSt6vectorImSaImEEE4baseEv
FNDA:0,_ZNKSt13move_iteratorIPmE4baseEv
FNDA:0,_ZNKSt13move_iteratorIPSt6vectorImSaImEEEdeEv
FNDA:0,_ZNSt13move_iteratorIPSt6vectorImSaImEEEppEv
FNDA:60,_ZSteqIPSt6vectorImSaImEEEbRKSt13move_iteratorIT_ES8_
FNDA:60,_ZStneIPSt6vectorImSaImEEEbRKSt13move_iteratorIT_ES8_
FNDA:0,_ZSt18make_move_iteratorIPSt6vectorImSaImEEESt13move_iteratorIT_ES5_
FNDA:120,_ZSt32__make_move_if_noexcept_iteratorISt6vectorImSaImEESt13move_iteratorIPS2_EET0_PT_
FNDA:0,_ZSt32__make_move_if_noexcept_iteratorImSt13move_iteratorIPmEET0_PT_
FNDA:0,_ZSt12__miter_baseIPmEDTcl12__miter_basecldtfp_4baseEEESt13move_iteratorIT_E
FNDA:36,_ZN9__gnu_cxx17__normal_iteratorIPKSt6vectorImSaImEES1_IS3_SaIS3_EEEC1ERKS5_
FNDA:396,_ZN9__gnu_cxx17__normal_iteratorIPKmSt6vectorImSaImEEEC1ERKS2_
FNDA:60,_ZN9__gnu_cxx17__normal_iteratorIPSt6vectorImSaImEES1_IS3_SaIS3_EEEC1ERKS4_
FNDA:588,_ZN9__gnu_cxx17__normal_iteratorIPmSt6vectorImSaImEEEC1ERKS1_
FNDA:54,_ZNK9__gnu_cxx17__normal_iteratorIPKSt6vectorImSaImEES1_IS3_SaIS3_EEEdeEv
FNF:28
FNH:21
DA:975,1080
DA:976,1080
DA:990,54
DA:991,54
DA:1000,54
DA:1002,54
DA:1003,54
DA:1038,60
DA:1039,60
DA:1053,1596
DA:1054,1596
DA:1110,72
DA:1113,72
DA:1199,234
DA:1202,234
DA:1222,516
DA:1224,516
DA:1323,120
DA:1324,120
DA:1341,120
DA:1342,120
DA:1357,0
DA:1361,0
DA:1369,0
DA:1371,0
DA:1372,0
DA:1533,60
DA:1535,60
DA:1539,60
DA:1541,60
DA:1584,0
DA:1585,0
DA:1601,120
DA:1602,120
DA:2203,0
DA:2205,0
LF:36
LH:27
end_of_record
TN:coverage
SF:/usr/local/include/c++/10.3.0/bits/stl_iterator_base_types.h
FN:238,239,_ZSt19__iterator_categoryIPmENSt15iterator_traitsIT_E17iterator_categoryERKS2_
FNDA:30,_ZSt19__iterator_categoryIPmENSt15iterator_traitsIT_E17iterator_categoryERKS2_
FNF:1
FNH:1
DA:238,30
DA:239,30
LF:2
LH:2
end_of_record
TN:coverage
SF:/usr/local/include/c++/10.3.0/bits/stl_uninitialized.h
FN:1022,1031,_ZSt12__relocate_aIPmS0_SaImEET0_T_S3_S2_RT1_
FN:107,109,_ZNSt20__uninitialized_copyILb1EE13__uninit_copyIN9__gnu_cxx17__normal_iteratorIPKmSt6vectorImSaImEEEEPmEET0_T_SC_SB_
FN:107,109,_ZNSt20__uninitialized_copyILb1EE13__uninit_copyIPmS2_EET0_T_S4_S3_
FN:107,109,_ZNSt20__uninitialized_copyILb1EE13__uninit_copyISt13move_iteratorIPmES3_EET0_T_S6_S5_
FN:125,151,_ZSt18uninitialized_copyIN9__gnu_cxx17__normal_iteratorIPKSt6vectorImSaImEES2_IS4_SaIS4_EEEEPS4_ET0_T_SC_SB_
FN:125,151,_ZSt18uninitialized_copyIN9__gnu_cxx17__normal_iteratorIPKmSt6vectorImSaImEEEEPmET0_T_SA_S9_
FN:125,151,_ZSt18uninitialized_copyIPmS0_ET0_T_S2_S1_
FN:125,151,_ZSt18uninitialized_copyISt13move_iteratorIPSt6vectorImSaImEEES4_ET0_T_S7_S6_
FN:125,151,_ZSt18uninitialized_copyISt13move_iteratorIPmES1_ET0_T_S4_S3_
FN:229,244,_ZNSt22__uninitialized_fill_nILb0EE15__uninit_fill_nIPSt6vectorImSaImEEmS4_EET_S6_T0_RKT1_
FN:252,254,_ZNSt22__uninitialized_fill_nILb1EE15__uninit_fill_nIPmmmEET_S3_T0_RKT1_
FN:272,290,_ZSt20uninitialized_fill_nIPSt6vectorImSaImEEmS2_ET_S4_T0_RKT1_
FN:272,290,_ZSt20uninitialized_fill_nIPmmmET_S1_T0_RKT1_
FN:323,325,_ZSt22__uninitialized_copy_aIN9__gnu_cxx17__normal_iteratorIPKSt6vectorImSaImEES2_IS4_SaIS4_EEEEPS4_S4_ET0_T_SC_SB_RSaIT1_E
FN:323,325,_ZSt22__uninitialized_copy_aIN9__gnu_cxx17__normal_iteratorIPKmSt6vectorImSaImEEEEPmmET0_T_SA_S9_RSaIT1_E
FN:323,325,_ZSt22__uninitialized_copy_aIPmS0_mET0_T_S2_S1_RSaIT1_E
FN:323,325,_ZSt22__uninitialized_copy_aISt13move_iteratorIPSt6vectorImSaImEEES4_S3_ET0_T_S7_S6_RSaIT1_E
FN:323,325,_ZSt22__uninitialized_copy_aISt13move_iteratorIPmES1_mET0_T_S4_S3_RSaIT1_E
FN:330,336,_ZSt22__uninitialized_move_aIPSt6vectorImSaImEES3_SaIS2_EET0_T_S6_S5_RT1_
FN:341,349,_ZSt34__uninitialized_move_if_noexcept_aIPSt6vectorImSaImEES3_SaIS2_EET0_T_S6_S5_RT1_
FN:341,349,_ZSt34__uninitialized_move_if_noexcept_aIPmS0_SaImEET0_T_S3_S2_RT1_
FN:400,402,_ZSt24__uninitialized_fill_n_aIPSt6vectorImSaImEEmS2_S2_ET_S4_T0_RKT1_RSaIT2_E
FN:400,402,_ZSt24__uninitialized_fill_n_aIPmmmmET_S1_T0_RKT1_RSaIT2_E
FN:84,99,_ZNSt20__uninitialized_copyILb0EE13__uninit_copyIN9__gnu_cxx17__normal_iteratorIPKSt6vectorImSaImEES4_IS6_SaIS6_EEEEPS6_EET0_T_SE_SD_
FN:84,99,_ZNSt20__uninitialized_copyILb0EE13__uninit_copyISt13move_iteratorIPSt6vectorImSaImEEES6_EET0_T_S9_S8_
FN:988,995,_ZSt14__relocate_a_1ImmENSt9enable_ifIXsrSt24__is_bitwise_relocatableIT_vE5valueEPS2_E4typeES4_S4_S4_RSaIT0_E
FNDA:408,_ZSt12__relocate_aIPmS0_SaImEET0_T_S3_S2_RT1_
FNDA:138,_ZNSt20__uninitialized_copyILb1EE13__uninit_copyIN9__gnu_cxx17__normal_iteratorIPKmSt6vectorImSaImEEEEPmEET0_T_SC_SB_
FNDA:0,_ZNSt20__uninitialized_copyILb1EE13__uninit_copyIPmS2_EET0_T_S4_S3_
FNDA:0,_ZNSt20__uninitialized_copyILb1EE13__uninit_copyISt13move_iteratorIPmES3_EET0_T_S6_S5_
FNDA:18,_ZSt18uninitialized_copyIN9__gnu_cxx17__normal_iteratorIPKSt6vectorImSaImEES2_IS4_SaIS4_EEEEPS4_ET0_T_SC_SB_
FNDA:138,_ZSt18uninitialized_copyIN9__gnu_cxx17__normal_iteratorIPKmSt6vectorImSaImEEEEPmET0_T_SA_S9_
FNDA:0,_ZSt18uninitialized_copyIPmS0_ET0_T_S2_S1_
FNDA:60,_ZSt18uninitialized_copyISt13move_iteratorIPSt6vectorImSaImEEES4_ET0_T_S7_S6_
FNDA:0,_ZSt18uninitialized_copyISt13move_iteratorIPmES1_ET0_T_S4_S3_
FNDA:30,_ZNSt22__uninitialized_fill_nILb0EE15__uninit_fill_nIPSt6vectorImSaImEEmS4_EET_S6_T0_RKT1_
FNDA:30,_ZNSt22__uninitialized_fill_nILb1EE15__uninit_fill_nIPmmmEET_S3_T0_RKT1_
FNDA:30,_ZSt20uninitialized_fill_nIPSt6vectorImSaImEEmS2_ET_S4_T0_RKT1_
FNDA:30,_ZSt20uninitialized_fill_nIPmmmET_S1_T0_RKT1_
FNDA:18,_ZSt22__uninitialized_copy_aIN9__gnu_cxx17__normal_iteratorIPKSt6vectorImSaImEES2_IS4_SaIS4_EEEEPS4_S4_ET0_T_SC_SB_RSaIT1_E
FNDA:138,_ZSt22__uninitialized_copy_aIN9__gnu_cxx17__normal_iteratorIPKmSt6vectorImSaImEEEEPmmET0_T_SA_S9_RSaIT1_E
FNDA:0,_ZSt22__uninitialized_copy_aIPmS0_mET0_T_S2_S1_RSaIT1_E
FNDA:60,_ZSt22__uninitialized_copy_aISt13move_iteratorIPSt6vectorImSaImEEES4_S3_ET0_T_S7_S6_RSaIT1_E
FNDA:0,_ZSt22__uninitialized_copy_aISt13move_iteratorIPmES1_mET0_T_S4_S3_RSaIT1_E
FNDA:0,_ZSt22__uninitialized_move_aIPSt6vectorImSaImEES3_SaIS2_EET0_T_S6_S5_RT1_
FNDA:60,_ZSt34__uninitialized_move_if_noexcept_aIPSt6vectorImSaImEES3_SaIS2_EET0_T_S6_S5_RT1_
FNDA:0,_ZSt34__uninitialized_move_if_noexcept_aIPmS0_SaImEET0_T_S3_S2_RT1_
FNDA:30,_ZSt24__uninitialized_fill_n_aIPSt6vectorImSaImEEmS2_S2_ET_S4_T0_RKT1_RSaIT2_E
FNDA:30,_ZSt24__uninitialized_fill_n_aIPmmmmET_S1_T0_RKT1_RSaIT2_E
FNDA:18,_ZNSt20__uninitialized_copyILb0EE13__uninit_copyIN9__gnu_cxx17__normal_iteratorIPKSt6vectorImSaImEES4_IS6_SaIS6_EEEEPS6_EET0_T_SE_SD_
FNDA:60,_ZNSt20__uninitialized_copyILb0EE13__uninit_copyISt13move_iteratorIPSt6vectorImSaImEEES6_EET0_T_S9_S8_
FNDA:0,_ZSt14__relocate_a_1ImmENSt9enable_ifIXsrSt24__is_bitwise_relocatableIT_vE5valueEPS2_E4typeES4_S4_S4_RSaIT0_E
FNF:26
FNH:17
DA:84,78
DA:87,78
DA:90,132
DA:91,54
DA:92,78
DA:94,0
DA:96,0
DA:97,0
DA:107,138
DA:109,138
DA:125,216
DA:144,216
DA:150,216
DA:229,30
DA:232,30
DA:235,114
DA:236,84
DA:237,30
DA:239,0
DA:241,0
DA:242,0
DA:252,30
DA:254,30
DA:272,60
DA:286,60
DA:289,60
DA:323,216
DA:325,216
DA:330,0
DA:333,0
DA:335,0
DA:341,60
DA:347,60
DA:348,60
DA:400,60
DA:402,60
DA:988,0
DA:991,0
DA:992,0
DA:993,0
DA:994,0
DA:1022,408
DA:1028,408
DA:1030,408
LF:44
LH:30
end_of_record
TN:coverage
SF:/usr/local/include/c++/10.3.0/bits/stl_vector.h
FN:102,105,_ZNSt12_Vector_baseImSaImEE17_Vector_impl_dataC2EOS2_
FN:1043,1047,_ZNSt6vectorIS_ImSaImEESaIS1_EEixEm
FN:1043,1047,_ZNSt6vectorImSaImEEixEm
FN:1061,1065,_ZNKSt6vectorIS_ImSaImEESaIS1_EEixEm
FN:1061,1065,_ZNKSt6vectorImSaImEEixEm
FN:109,114,_ZNSt12_Vector_baseImSaImEE17_Vector_impl_data12_M_copy_dataERKS2_
FN:117,125,_ZNSt12_Vector_baseImSaImEE17_Vector_impl_data12_M_swap_dataERS2_
FN:1187,1199,_ZNSt6vectorImSaImEE9push_backERKm
FN:131,134,_ZNSt12_Vector_baseImSaImEE12_Vector_implC1Ev
FN:136,138,_ZNSt12_Vector_baseISt6vectorImSaImEESaIS2_EE12_Vector_implC1ERKS3_
FN:136,138,_ZNSt12_Vector_baseImSaImEE12_Vector_implC1ERKS0_
FN:143,145,_ZNSt12_Vector_baseImSaImEE12_Vector_implC1EOS2_
FN:1498,1499,_ZNSt6vectorIS_ImSaImEESaIS1_EE5clearEv
FN:1498,1499,_ZNSt6vectorImSaImEE5clearEv
FN:1508,1523,_ZNSt6vectorImSaImEE20_M_allocate_and_copyIN9__gnu_cxx17__normal_iteratorIPKmS1_EEEEPmmT_S9_
FN:1593,1598,_ZNSt6vectorImSaImEE18_M_fill_initializeEmRKm
FN:1709,1713,_ZNSt6vectorIS_ImSaImEESaIS1_EE16_Temporary_valueC1IJRKS1_EEEPS3_DpOT_
FN:1715,1716,_ZNSt6vectorIS_ImSaImEESaIS1_EE16_Temporary_valueD1Ev
FN:1719,1719,_ZNSt6vectorIS_ImSaImEESaIS1_EE16_Temporary_value6_M_valEv
FN:1723,1723,_ZNSt6vectorIS_ImSaImEESaIS1_EE16_Temporary_value6_M_ptrEv
FN:1756,1763,_ZNKSt6vectorIS_ImSaImEESaIS1_EE12_M_check_lenEmPKc
FN:1756,1763,_ZNKSt6vectorImSaImEE12_M_check_lenEmPKc
FN:1767,1773,_ZNSt6vectorImSaImEE17_S_check_init_lenEmRKS0_
FN:1776,1785,_ZNSt6vectorIS_ImSaImEESaIS1_EE11_S_max_sizeERKS2_
FN:1776,1785,_ZNSt6vectorImSaImEE11_S_max_sizeERKS0_
FN:1792,1801,_ZNSt6vectorIS_ImSaImEESaIS1_EE15_M_erase_at_endEPS1_
FN:1792,1801,_ZNSt6vectorImSaImEE15_M_erase_at_endEPm
FN:1815,1821,_ZNSt6vectorImSaImEE14_M_move_assignEOS1_St17integral_constantIbLb1EE
FN:276,277,_ZNSt12_Vector_baseISt6vectorImSaImEESaIS2_EE19_M_get_Tp_allocatorEv
FN:276,277,_ZNSt12_Vector_baseImSaImEE19_M_get_Tp_allocatorEv
FN:280,281,_ZNKSt12_Vector_baseISt6vectorImSaImEESaIS2_EE19_M_get_Tp_allocatorEv
FN:280,281,_ZNKSt12_Vector_baseImSaImEE19_M_get_Tp_allocatorEv
FN:284,285,_ZNKSt12_Vector_baseImSaImEE13get_allocatorEv
FN:288,288,_ZNSt12_Vector_baseImSaImEEC2Ev
FN:293,294,_ZNSt12_Vector_baseImSaImEEC2ERKS0_
FN:303,305,_ZNSt12_Vector_baseISt6vectorImSaImEESaIS2_EEC2EmRKS3_
FN:303,305,_ZNSt12_Vector_baseImSaImEEC2EmRKS0_
FN:308,308,_ZNSt12_Vector_baseImSaImEEC2EOS1_
FN:333,337,_ZNSt12_Vector_baseISt6vectorImSaImEESaIS2_EED2Ev
FN:333,337,_ZNSt12_Vector_baseImSaImEED2Ev
FN:343,347,_ZNSt12_Vector_baseISt6vectorImSaImEESaIS2_EE11_M_allocateEm
FN:343,347,_ZNSt12_Vector_baseImSaImEE11_M_allocateEm
FN:350,355,_ZNSt12_Vector_baseISt6vectorImSaImEESaIS2_EE13_M_deallocateEPS2_m
FN:350,355,_ZNSt12_Vector_baseImSaImEE13_M_deallocateEPmm
FN:359,364,_ZNSt12_Vector_baseISt6vectorImSaImEESaIS2_EE17_M_create_storageEm
FN:359,364,_ZNSt12_Vector_baseImSaImEE17_M_create_storageEm
FN:431,437,_ZNSt6vectorImSaImEE19_S_nothrow_relocateESt17integral_constantIbLb1EE
FN:444,450,_ZNSt6vectorImSaImEE15_S_use_relocateEv
FN:453,457,_ZNSt6vectorImSaImEE14_S_do_relocateEPmS2_S2_RS0_St17integral_constantIbLb1EE
FN:465,470,_ZNSt6vectorImSaImEE11_S_relocateEPmS2_S2_RS0_
FN:487,487,_ZNSt6vectorImSaImEEC1Ev
FN:497,498,_ZNSt6vectorImSaImEEC1ERKS0_
FN:522,525,_ZNSt6vectorImSaImEEC1EmRKmRKS0_
FN:553,561,_ZNSt6vectorIS_ImSaImEESaIS1_EEC1ERKS3_
FN:553,561,_ZNSt6vectorImSaImEEC1ERKS1_
FN:572,572,_ZNSt6vectorImSaImEEC1EOS1_
FN:678,683,_ZNSt6vectorIS_ImSaImEESaIS1_EED1Ev
FN:678,683,_ZNSt6vectorImSaImEED1Ev
FN:709,716,_ZNSt6vectorImSaImEEaSEOS1_
FN:811,812,_ZNSt6vectorIS_ImSaImEESaIS1_EE5beginEv
FN:811,812,_ZNSt6vectorImSaImEE5beginEv
FN:820,821,_ZNKSt6vectorIS_ImSaImEESaIS1_EE5beginEv
FN:820,821,_ZNKSt6vectorImSaImEE5beginEv
FN:829,830,_ZNSt6vectorIS_ImSaImEESaIS1_EE3endEv
FN:829,830,_ZNSt6vectorImSaImEE3endEv
FN:838,839,_ZNKSt6vectorIS_ImSaImEESaIS1_EE3endEv
FN:838,839,_ZNKSt6vectorImSaImEE3endEv
FN:918,919,_ZNKSt6vectorIS_ImSaImEESaIS1_EE4sizeEv
FN:918,919,_ZNKSt6vectorImSaImEE4sizeEv
FN:923,924,_ZNKSt6vectorIS_ImSaImEESaIS1_EE8max_sizeEv
FN:923,924,_ZNKSt6vectorImSaImEE8max_sizeEv
FN:957,963,_ZNSt6vectorIS_ImSaImEESaIS1_EE6resizeEmRKS1_
FN:97,99,_ZNSt12_Vector_baseISt6vectorImSaImEESaIS2_EE17_Vector_impl_dataC2Ev
FN:97,99,_ZNSt12_Vector_baseImSaImEE17_Vector_impl_dataC1Ev
FN:97,99,_ZNSt12_Vector_baseImSaImEE17_Vector_impl_dataC2Ev
FN:998,1000,_ZNKSt6vectorImSaImEE8capacityEv
FNDA:0,_ZNSt12_Vector_baseImSaImEE17_Vector_impl_dataC2EOS2_
FNDA:180,_ZNSt6vectorIS_ImSaImEESaIS1_EEixEm
FNDA:120,_ZNSt6vectorImSaImEEixEm
FNDA:240,_ZNKSt6vectorIS_ImSaImEESaIS1_EEixEm
FNDA:0,_ZNKSt6vectorImSaImEEixEm
FNDA:0,_ZNSt12_Vector_baseImSaImEE17_Vector_impl_data12_M_copy_dataERKS2_
FNDA:0,_ZNSt12_Vector_baseImSaImEE17_Vector_impl_data12_M_swap_dataERS2_
FNDA:234,_ZNSt6vectorImSaImEE9push_backERKm
FNDA:0,_ZNSt12_Vector_baseImSaImEE12_Vector_implC1Ev
FNDA:18,_ZNSt12_Vector_baseISt6vectorImSaImEESaIS2_EE12_Vector_implC1ERKS3_
FNDA:168,_ZNSt12_Vector_baseImSaImEE12_Vector_implC1ERKS0_
FNDA:0,_ZNSt12_Vector_baseImSaImEE12_Vector_implC1EOS2_
FNDA:36,_ZNSt6vectorIS_ImSaImEESaIS1_EE5clearEv
FNDA:0,_ZNSt6vectorImSaImEE5clearEv
FNDA:0,_ZNSt6vectorImSaImEE20_M_allocate_and_copyIN9__gnu_cxx17__normal_iteratorIPKmS1_EEEEPmmT_S9_
FNDA:30,_ZNSt6vectorImSaImEE18_M_fill_initializeEmRKm
FNDA:0,_ZNSt6vectorIS_ImSaImEESaIS1_EE16_Temporary_valueC1IJRKS1_EEEPS3_DpOT_
FNDA:0,_ZNSt6vectorIS_ImSaImEESaIS1_EE16_Temporary_valueD1Ev
FNDA:0,_ZNSt6vectorIS_ImSaImEESaIS1_EE16_Temporary_value6_M_valEv
FNDA:0,_ZNSt6vectorIS_ImSaImEESaIS1_EE16_Temporary_value6_M_ptrEv
FNDA:30,_ZNKSt6vectorIS_ImSaImEESaIS1_EE12_M_check_lenEmPKc
FNDA:0,_ZNKSt6vectorImSaImEE12_M_check_lenEmPKc
FNDA:30,_ZNSt6vectorImSaImEE17_S_check_init_lenEmRKS0_
FNDA:60,_ZNSt6vectorIS_ImSaImEESaIS1_EE11_S_max_sizeERKS2_
FNDA:438,_ZNSt6vectorImSaImEE11_S_max_sizeERKS0_
FNDA:36,_ZNSt6vectorIS_ImSaImEESaIS1_EE15_M_erase_at_endEPS1_
FNDA:0,_ZNSt6vectorImSaImEE15_M_erase_at_endEPm
FNDA:0,_ZNSt6vectorImSaImEE14_M_move_assignEOS1_St17integral_constantIbLb1EE
FNDA:0,_ZNSt12_Vector_baseISt6vectorImSaImEESaIS2_EE19_M_get_Tp_allocatorEv
FNDA:0,_ZNSt12_Vector_baseImSaImEE19_M_get_Tp_allocatorEv
FNDA:78,_ZNKSt12_Vector_baseISt6vectorImSaImEESaIS2_EE19_M_get_Tp_allocatorEv
FNDA:546,_ZNKSt12_Vector_baseImSaImEE19_M_get_Tp_allocatorEv
FNDA:0,_ZNKSt12_Vector_baseImSaImEE13get_allocatorEv
FNDA:0,_ZNSt12_Vector_baseImSaImEEC2Ev
FNDA:0,_ZNSt12_Vector_baseImSaImEEC2ERKS0_
FNDA:18,_ZNSt12_Vector_baseISt6vectorImSaImEESaIS2_EEC2EmRKS3_
FNDA:168,_ZNSt12_Vector_baseImSaImEEC2EmRKS0_
FNDA:0,_ZNSt12_Vector_baseImSaImEEC2EOS1_
FNDA:0,_ZNSt12_Vector_baseISt6vectorImSaImEESaIS2_EED2Ev
FNDA:0,_ZNSt12_Vector_baseImSaImEED2Ev
FNDA:48,_ZNSt12_Vector_baseISt6vectorImSaImEESaIS2_EE11_M_allocateEm
FNDA:0,_ZNSt12_Vector_baseImSaImEE11_M_allocateEm
FNDA:0,_ZNSt12_Vector_baseISt6vectorImSaImEESaIS2_EE13_M_deallocateEPS2_m
FNDA:0,_ZNSt12_Vector_baseImSaImEE13_M_deallocateEPmm
FNDA:18,_ZNSt12_Vector_baseISt6vectorImSaImEESaIS2_EE17_M_create_storageEm
FNDA:168,_ZNSt12_Vector_baseImSaImEE17_M_create_storageEm
FNDA:0,_ZNSt6vectorImSaImEE19_S_nothrow_relocateESt17integral_constantIbLb1EE
FNDA:408,_ZNSt6vectorImSaImEE15_S_use_relocateEv
FNDA:0,_ZNSt6vectorImSaImEE14_S_do_relocateEPmS2_S2_RS0_St17integral_constantIbLb1EE
FNDA:408,_ZNSt6vectorImSaImEE11_S_relocateEPmS2_S2_RS0_
FNDA:0,_ZNSt6vectorImSaImEEC1Ev
FNDA:0,_ZNSt6vectorImSaImEEC1ERKS0_
FNDA:30,_ZNSt6vectorImSaImEEC1EmRKmRKS0_
FNDA:18,_ZNSt6vectorIS_ImSaImEESaIS1_EEC1ERKS3_
FNDA:138,_ZNSt6vectorImSaImEEC1ERKS1_
FNDA:0,_ZNSt6vectorImSaImEEC1EOS1_
FNDA:0,_ZNSt6vectorIS_ImSaImEESaIS1_EED1Ev
FNDA:0,_ZNSt6vectorImSaImEED1Ev
FNDA:0,_ZNSt6vectorImSaImEEaSEOS1_
FNDA:30,_ZNSt6vectorIS_ImSaImEESaIS1_EE5beginEv
FNDA:0,_ZNSt6vectorImSaImEE5beginEv
FNDA:18,_ZNKSt6vectorIS_ImSaImEESaIS1_EE5beginEv
FNDA:198,_ZNKSt6vectorImSaImEE5beginEv
FNDA:30,_ZNSt6vectorIS_ImSaImEESaIS1_EE3endEv
FNDA:0,_ZNSt6vectorImSaImEE3endEv
FNDA:18,_ZNKSt6vectorIS_ImSaImEESaIS1_EE3endEv
FNDA:198,_ZNKSt6vectorImSaImEE3endEv
FNDA:198,_ZNKSt6vectorIS_ImSaImEESaIS1_EE4sizeEv
FNDA:0,_ZNKSt6vectorImSaImEE4sizeEv
FNDA:60,_ZNKSt6vectorIS_ImSaImEESaIS1_EE8max_sizeEv
FNDA:0,_ZNKSt6vectorImSaImEE8max_sizeEv
FNDA:30,_ZNSt6vectorIS_ImSaImEESaIS1_EE6resizeEmRKS1_
FNDA:0,_ZNSt12_Vector_baseISt6vectorImSaImEESaIS2_EE17_Vector_impl_dataC2Ev
FNDA:0,_ZNSt12_Vector_baseImSaImEE17_Vector_impl_dataC1Ev
FNDA:240,_ZNSt12_Vector_baseImSaImEE17_Vector_impl_dataC2Ev
FNDA:60,_ZNKSt6vectorImSaImEE8capacityEv
FNF:76
FNH:36
DA:97,240
DA:98,240
DA:99,240
DA:102,0
DA:103,0
DA:104,0
DA:105,0
DA:109,0
DA:111,0
DA:112,0
DA:113,0
DA:114,0
DA:117,0
DA:121,0
DA:122,0
DA:123,0
DA:124,0
DA:125,0
DA:131,0
DA:133,0
DA:134,0
DA:136,186
DA:137,186
DA:138,186
DA:143,0
DA:144,0
DA:145,0
DA:276,0
DA:277,0
DA:280,624
DA:281,624
DA:284,0
DA:285,0
DA:288,0
DA:293,0
DA:294,0
DA:303,186
DA:304,186
DA:305,186
DA:308,0
DA:333,0
DA:335,0
DA:336,0
DA:337,0
DA:343,48
DA:346,48
DA:350,0
DA:353,0
DA:354,0
DA:355,0
DA:359,186
DA:361,186
DA:362,186
DA:363,186
DA:364,186
DA:431,0
DA:436,0
DA:444,408
DA:449,408
DA:453,0
DA:456,0
DA:465,408
DA:469,408
DA:487,0
DA:497,0
DA:498,0
DA:522,30
DA:524,30
DA:525,30
DA:553,156
DA:555,156
DA:557,156
DA:558,156
DA:560,156
DA:561,156
DA:572,0
DA:678,0
DA:680,0
DA:681,0
DA:683,0
DA:709,0
DA:711,0
DA:714,0
DA:715,0
DA:811,30
DA:812,30
DA:820,216
DA:821,216
DA:829,30
DA:830,30
DA:838,216
DA:839,216
DA:918,198
DA:919,198
DA:923,60
DA:924,60
DA:957,30
DA:959,30
DA:960,30
DA:961,0
DA:962,0
DA:963,30
DA:998,60
DA:999,60
DA:1000,60
DA:1043,300
DA:1046,300
DA:1061,240
DA:1064,240
DA:1187,234
DA:1189,234
DA:1192,30
DA:1194,30
DA:1198,204
DA:1199,234
DA:1498,36
DA:1499,36
DA:1508,0
DA:1511,0
DA:1514,0
DA:1515,0
DA:1516,0
DA:1518,0
DA:1520,0
DA:1521,0
DA:1593,30
DA:1595,30
DA:1596,30
DA:1597,30
DA:1598,30
DA:1709,0
DA:1711,0
DA:1713,0
DA:1715,0
DA:1716,0
DA:1719,0
DA:1723,0
DA:1756,30
DA:1758,30
DA:1759,0
DA:1761,30
DA:1762,30
DA:1767,30
DA:1769,30
DA:1770,0
DA:1772,30
DA:1776,498
DA:1781,498
DA:1783,498
DA:1784,498
DA:1792,36
DA:1794,36
DA:1796,0
DA:1797,0
DA:1798,0
DA:1801,36
DA:1815,0
DA:1817,0
DA:1818,0
DA:1819,0
DA:1820,0
DA:1821,0
LF:162
LH:81
end_of_record
TN:coverage
SF:/usr/local/include/c++/10.3.0/bits/vector.tcc
FN:198,253,_ZNSt6vectorImSaImEEaSERKS1_
FN:426,505,_ZNSt6vectorImSaImEE17_M_realloc_insertIJRKmEEEvN9__gnu_cxx17__normal_iteratorIPmS1_EEDpOT_
FN:509,606,_ZNSt6vectorIS_ImSaImEESaIS1_EE14_M_fill_insertEN9__gnu_cxx17__normal_iteratorIPS1_S3_EEmRKS1_
FNDA:60,_ZNSt6vectorImSaImEEaSERKS1_
FNDA:204,_ZNSt6vectorImSaImEE17_M_realloc_insertIJRKmEEEvN9__gnu_cxx17__normal_iteratorIPmS1_EEDpOT_
FNDA:30,_ZNSt6vectorIS_ImSaImEESaIS1_EE14_M_fill_insertEN9__gnu_cxx17__normal_iteratorIPS1_S3_EEmRKS1_
FNF:3
FNH:3
DA:198,60
DA:201,60
DA:205,60
DA:207,0
DA:208,0
DA:211,0
DA:212,0
DA:213,0
DA:214,0
DA:215,0
DA:216,0
DA:217,0
DA:219,0
DA:220,0
DA:223,60
DA:224,60
DA:226,0
DA:228,0
DA:229,0
DA:230,0
DA:231,0
DA:232,0
DA:233,0
DA:234,0
DA:236,60
DA:238,60
DA:239,60
DA:243,0
DA:245,0
DA:246,0
DA:248,0
DA:250,60
DA:252,60
DA:426,204
DA:436,204
DA:437,204
DA:438,204
DA:439,204
DA:440,204
DA:441,204
DA:449,204
DA:450,204
DA:456,204
DA:459,204
DA:461,204
DA:462,204
DA:464,204
DA:466,204
DA:467,204
DA:474,0
DA:475,0
DA:477,0
DA:481,0
DA:482,0
DA:485,0
DA:487,0
DA:488,0
DA:489,0
DA:491,0
DA:492,0
DA:493,0
DA:496,204
DA:498,0
DA:500,204
DA:501,204
DA:502,204
DA:503,204
DA:504,204
DA:505,204
DA:509,30
DA:512,30
DA:514,30
DA:515,30
DA:520,0
DA:521,0
DA:523,0
DA:524,0
DA:525,0
DA:528,0
DA:531,0
DA:532,0
DA:534,0
DA:536,0
DA:542,0
DA:543,0
DA:546,0
DA:548,0
DA:550,0
DA:551,0
DA:553,0
DA:559,30
DA:560,30
DA:561,30
DA:562,30
DA:566,30
DA:568,30
DA:569,30
DA:573,30
DA:574,30
DA:576,30
DA:580,30
DA:581,30
DA:583,0
DA:585,0
DA:586,0
DA:587,0
DA:588,0
DA:590,0
DA:591,0
DA:592,0
DA:593,0
DA:595,30
DA:596,30
DA:598,30
DA:599,30
DA:600,30
DA:601,30
DA:602,30
DA:603,30
DA:606,30
LF:120
LH:58
end_of_record
TN:coverage
SF:/usr/local/include/c++/10.3.0/ext/alloc_traits.h
FN:103,104,_ZN9__gnu_cxx14__alloc_traitsISaImEmE27_S_propagate_on_copy_assignEv
FN:112,113,_ZN9__gnu_cxx14__alloc_traitsISaImEmE15_S_always_equalEv
FN:97,98,_ZN9__gnu_cxx14__alloc_traitsISaISt6vectorImSaImEEES3_E17_S_select_on_copyERKS4_
FN:97,98,_ZN9__gnu_cxx14__alloc_traitsISaIcEcE17_S_select_on_copyERKS1_
FN:97,98,_ZN9__gnu_cxx14__alloc_traitsISaImEmE17_S_select_on_copyERKS1_
FNDA:60,_ZN9__gnu_cxx14__alloc_traitsISaImEmE27_S_propagate_on_copy_assignEv
FNDA:0,_ZN9__gnu_cxx14__alloc_traitsISaImEmE15_S_always_equalEv
FNDA:18,_ZN9__gnu_cxx14__alloc_traitsISaISt6vectorImSaImEEES3_E17_S_select_on_copyERKS4_
FNDA:0,_ZN9__gnu_cxx14__alloc_traitsISaIcEcE17_S_select_on_copyERKS1_
FNDA:138,_ZN9__gnu_cxx14__alloc_traitsISaImEmE17_S_select_on_copyERKS1_
FNF:5
FNH:3
DA:97,156
DA:98,156
DA:103,60
DA:104,60
DA:112,0
DA:113,0
LF:6
LH:4
end_of_record
TN:coverage
SF:/usr/local/include/c++/10.3.0/ext/new_allocator.h
FN:103,116,_ZN9__gnu_cxx13new_allocatorISt6vectorImSaImEEE8allocateEmPKv
FN:103,116,_ZN9__gnu_cxx13new_allocatorImE8allocateEmPKv
FN:120,138,_ZN9__gnu_cxx13new_allocatorISt6vectorImSaImEEE10deallocateEPS3_m
FN:120,138,_ZN9__gnu_cxx13new_allocatorImE10deallocateEPmm
FN:142,143,_ZNK9__gnu_cxx13new_allocatorISt6vectorImSaImEEE8max_sizeEv
FN:142,143,_ZNK9__gnu_cxx13new_allocatorImE8max_sizeEv
FN:148,150,_ZN9__gnu_cxx13new_allocatorISt6vectorImSaImEEE9constructIS3_JRKS3_EEEvPT_DpOT0_
FN:148,150,_ZN9__gnu_cxx13new_allocatorImE9constructImJRKmEEEvPT_DpOT0_
FN:154,156,_ZN9__gnu_cxx13new_allocatorISt6vectorImSaImEEE7destroyIS3_EEvPT_
FN:154,156,_ZN9__gnu_cxx13new_allocatorImE7destroyImEEvPT_
FN:185,192,_ZNK9__gnu_cxx13new_allocatorISt6vectorImSaImEEE11_M_max_sizeEv
FN:185,192,_ZNK9__gnu_cxx13new_allocatorImE11_M_max_sizeEv
FN:79,79,_ZN9__gnu_cxx13new_allocatorImEC2Ev
FN:82,82,_ZN9__gnu_cxx13new_allocatorISt6vectorImSaImEEEC2ERKS4_
FN:82,82,_ZN9__gnu_cxx13new_allocatorImEC2ERKS1_
FN:89,89,_ZN9__gnu_cxx13new_allocatorISt6vectorImSaImEEED2Ev
FN:89,89,_ZN9__gnu_cxx13new_allocatorImED2Ev
FNDA:48,_ZN9__gnu_cxx13new_allocatorISt6vectorImSaImEEE8allocateEmPKv
FNDA:0,_ZN9__gnu_cxx13new_allocatorImE8allocateEmPKv
FNDA:0,_ZN9__gnu_cxx13new_allocatorISt6vectorImSaImEEE10deallocateEPS3_m
FNDA:0,_ZN9__gnu_cxx13new_allocatorImE10deallocateEPmm
FNDA:60,_ZNK9__gnu_cxx13new_allocatorISt6vectorImSaImEEE8max_sizeEv
FNDA:0,_ZNK9__gnu_cxx13new_allocatorImE8max_sizeEv
FNDA:0,_ZN9__gnu_cxx13new_allocatorISt6vectorImSaImEEE9constructIS3_JRKS3_EEEvPT_DpOT0_
FNDA:234,_ZN9__gnu_cxx13new_allocatorImE9constructImJRKmEEEvPT_DpOT0_
FNDA:0,_ZN9__gnu_cxx13new_allocatorISt6vectorImSaImEEE7destroyIS3_EEvPT_
FNDA:0,_ZN9__gnu_cxx13new_allocatorImE7destroyImEEvPT_
FNDA:108,_ZNK9__gnu_cxx13new_allocatorISt6vectorImSaImEEE11_M_max_sizeEv
FNDA:810,_ZNK9__gnu_cxx13new_allocatorImE11_M_max_sizeEv
FNDA:102,_ZN9__gnu_cxx13new_allocatorImEC2Ev
FNDA:36,_ZN9__gnu_cxx13new_allocatorISt6vectorImSaImEEEC2ERKS4_
FNDA:336,_ZN9__gnu_cxx13new_allocatorImEC2ERKS1_
FNDA:0,_ZN9__gnu_cxx13new_allocatorISt6vectorImSaImEEED2Ev
FNDA:0,_ZN9__gnu_cxx13new_allocatorImED2Ev
FNF:17
FNH:8
DA:79,102
DA:82,372
DA:89,0
DA:103,48
DA:105,48
DA:106,0
DA:115,48
DA:120,0
DA:133,0
DA:138,0
DA:142,60
DA:143,60
DA:148,234
DA:150,234
DA:154,0
DA:156,0
DA:185,918
DA:188,918
LF:18
LH:11
end_of_record
TN:coverage
SF:/usr/local/include/c++/10.3.0/iostream
FNF:0
FNH:0
LF:0
LH:0
end_of_record
TN:coverage
SF:/usr/local/include/c++/10.3.0/new
FN:174,175,_ZnwmPv
FN:180,180,_ZdlPvS_
FNDA:576,_ZnwmPv
FNDA:0,_ZdlPvS_
FNF:2
FNH:1
DA:174,576
DA:175,576
DA:180,0
LF:3
LH:2
end_of_record
